; Function Attrs: mustprogress nounwind uwtable
define dso_local void @_ZN4llvm14CombinerHelper24applyFunnelShiftToRotateERNS_12MachineInstrE(ptr nocapture noundef nonnull readonly align 8 dereferenceable(72) %0, ptr noundef nonnull align 8 dereferenceable(70) %1) local_unnamed_addr #0 align 2 {
  %3 = getelementptr inbounds nuw i8, ptr %1, i64 68
  %4 = load i16, ptr %3, align 4
  %5 = icmp eq i16 %4, 138
  %6 = getelementptr inbounds nuw i8, ptr %0, i64 16
  %7 = load ptr, ptr %6, align 8
  %8 = load ptr, ptr %7, align 8
  %9 = getelementptr inbounds i8, ptr %8, i64 32
  %10 = load ptr, ptr %9, align 8
  tail call void %10(ptr noundef nonnull align 8 dereferenceable(72) %7, ptr noundef nonnull align 8 dereferenceable(70) %1) #27
  %11 = load ptr, ptr %0, align 8
  %12 = getelementptr inbounds i8, ptr %11, i64 16
  %13 = load ptr, ptr %12, align 8
  %14 = getelementptr inbounds i8, ptr %13, i64 8
  %15 = load ptr, ptr %14, align 8
  %.neg = select i1 %5, i64 -141, i64 -140
  %16 = getelementptr inbounds %"class.llvm::MCInstrDesc", ptr %15, i64 %.neg
  tail call void @_ZN4llvm12MachineInstr7setDescERKNS_11MCInstrDescE(ptr noundef nonnull align 8 dereferenceable(70) %1, ptr noundef nonnull align 8 dereferenceable(32) %16) #27
  tail call void @_ZN4llvm12MachineInstr13removeOperandEj(ptr noundef nonnull align 8 dereferenceable(70) %1, i32 noundef 2) #27
  %17 = load ptr, ptr %6, align 8
  %18 = load ptr, ptr %17, align 8
  %19 = getelementptr inbounds i8, ptr %18, i64 40
  %20 = load ptr, ptr %19, align 8
  tail call void %20(ptr noundef nonnull align 8 dereferenceable(72) %17, ptr noundef nonnull align 8 dereferenceable(70) %1) #27
  ret void
}